target datalayout = "e-m:e-p270:32:32-p271:32:32-p272:64:64-i64:64-i128:128-f80:128-n8:16:32:64-S128"
target triple = "x86_64-unknown-linux-gnu"

%"class.v8::IndirectHandleBase" = type { ptr }
%"class.v8::ReturnValue" = type { ptr }
%"class.v8::Local.422" = type { %"class.v8::LocalBase.423" }
%"class.v8::LocalBase.423" = type { %"class.v8::IndirectHandleBase" }

; Function Attrs: mustprogress nounwind uwtable
define internal void @_ZN4nodeL20GetConstrainedMemoryERKN2v820FunctionCallbackInfoINS0_5ValueEEE(ptr noundef nonnull align 8 dereferenceable(20) %args) #4 {
entry:
  %this.addr.i7 = alloca ptr, align 8
  %slot.addr.i = alloca ptr, align 8
  %isolate.addr.i12.i = alloca ptr, align 8
  %index.addr.i13.i = alloca i32, align 4
  %addr.i.i = alloca i64, align 8
  %isolate.addr.i.i = alloca ptr, align 8
  %index.addr.i.i = alloca i32, align 4
  %this.addr.i10.i = alloca ptr, align 8
  %this.addr.i.i.i = alloca ptr, align 8
  %this.addr.i8.i = alloca ptr, align 8
  %this.addr.i.i4 = alloca ptr, align 8
  %handle.i = alloca %"class.v8::Local.422", align 8
  %this.addr.i5 = alloca ptr, align 8
  %this.addr.i.i = alloca ptr, align 8
  %this.addr.i2 = alloca ptr, align 8
  %i.addr.i = alloca double, align 8
  %agg.tmp.i = alloca %"class.v8::Local.422", align 8
  %retval.i = alloca %"class.v8::ReturnValue", align 8
  %this.addr.i = alloca ptr, align 8
  %args.addr = alloca ptr, align 8
  %value = alloca i64, align 8
  %ref.tmp = alloca %"class.v8::ReturnValue", align 8
  store ptr %args, ptr %args.addr, align 8
  %call = call i64 @uv_get_constrained_memory()
  store i64 %call, ptr %value, align 8
  %0 = load i64, ptr %value, align 8
  %cmp = icmp ne i64 %0, 0
  br i1 %cmp, label %if.then, label %if.end

if.then:                                          ; preds = %entry
  %1 = load ptr, ptr %args.addr, align 8
  store ptr %1, ptr %this.addr.i, align 8
  %this1.i = load ptr, ptr %this.addr.i, align 8
  %2 = load ptr, ptr %this1.i, align 8
  %arrayidx.i = getelementptr inbounds i64, ptr %2, i64 3
  store ptr %retval.i, ptr %this.addr.i7, align 8
  store ptr %arrayidx.i, ptr %slot.addr.i, align 8
  %this1.i8 = load ptr, ptr %this.addr.i7, align 8
  %3 = load ptr, ptr %slot.addr.i, align 8
  store ptr %3, ptr %this1.i8, align 8
  %4 = load ptr, ptr %retval.i, align 8
  %coerce.dive = getelementptr inbounds %"class.v8::ReturnValue", ptr %ref.tmp, i32 0, i32 0
  store ptr %4, ptr %coerce.dive, align 8
  %5 = load i64, ptr %value, align 8
  %conv = uitofp i64 %5 to double
  store ptr %ref.tmp, ptr %this.addr.i2, align 8
  store double %conv, ptr %i.addr.i, align 8
  %this1.i3 = load ptr, ptr %this.addr.i2, align 8
  store ptr %this1.i3, ptr %this.addr.i.i, align 8
  %this1.i.i = load ptr, ptr %this.addr.i.i, align 8
  %6 = load ptr, ptr %this1.i.i, align 8
  %arrayidx.i.i = getelementptr inbounds i64, ptr %6, i64 -2
  %7 = load ptr, ptr %arrayidx.i.i, align 8
  %8 = load double, ptr %i.addr.i, align 8
  %call2.i = call ptr @_ZN2v86Number3NewEPNS_7IsolateEd(ptr noundef %7, double noundef %8) #3
  store ptr %call2.i, ptr %agg.tmp.i, align 8
  %9 = load ptr, ptr %agg.tmp.i, align 8
  store ptr %9, ptr %handle.i, align 8
  store ptr %this1.i3, ptr %this.addr.i5, align 8
  %this3.i = load ptr, ptr %this.addr.i5, align 8
  store ptr %handle.i, ptr %this.addr.i.i4, align 8
  %this1.i.i6 = load ptr, ptr %this.addr.i.i4, align 8
  %10 = load ptr, ptr %this1.i.i6, align 8
  %cmp.i.i = icmp eq ptr %10, null
  br i1 %cmp.i.i, label %if.then.i, label %if.else.i

if.then.i:                                        ; preds = %if.then
  store ptr %this3.i, ptr %this.addr.i8.i, align 8
  %this1.i9.i = load ptr, ptr %this.addr.i8.i, align 8
  store ptr %this1.i9.i, ptr %this.addr.i.i.i, align 8
  %this1.i.i.i = load ptr, ptr %this.addr.i.i.i, align 8
  %11 = load ptr, ptr %this1.i.i.i, align 8
  %arrayidx.i.i.i = getelementptr inbounds i64, ptr %11, i64 -2
  %12 = load ptr, ptr %arrayidx.i.i.i, align 8
  store ptr %12, ptr %isolate.addr.i.i, align 8
  store i32 5, ptr %index.addr.i.i, align 4
  %13 = load ptr, ptr %isolate.addr.i.i, align 8
  %14 = load i32, ptr %index.addr.i.i, align 4
  store ptr %13, ptr %isolate.addr.i12.i, align 8
  store i32 %14, ptr %index.addr.i13.i, align 4
  %15 = load ptr, ptr %isolate.addr.i12.i, align 8
  %16 = ptrtoint ptr %15 to i64
  %add.i.i = add i64 %16, 576
  %17 = load i32, ptr %index.addr.i13.i, align 4
  %mul.i.i = mul nsw i32 %17, 8
  %conv.i.i = sext i32 %mul.i.i to i64
  %add1.i.i = add i64 %add.i.i, %conv.i.i
  store i64 %add1.i.i, ptr %addr.i.i, align 8
  %18 = load i64, ptr %addr.i.i, align 8
  %19 = inttoptr i64 %18 to ptr
  %20 = load i64, ptr %19, align 8
  %21 = load ptr, ptr %this3.i, align 8
  store i64 %20, ptr %21, align 8
  br label %_ZN2v811ReturnValueINS_5ValueEE3SetINS_6NumberEEEvNS_5LocalIT_EE.exit

if.else.i:                                        ; preds = %if.then
  store ptr %handle.i, ptr %this.addr.i10.i, align 8
  %this1.i11.i = load ptr, ptr %this.addr.i10.i, align 8
  %22 = load ptr, ptr %this1.i11.i, align 8
  %23 = load i64, ptr %22, align 8
  %24 = load ptr, ptr %this3.i, align 8
  store i64 %23, ptr %24, align 8
  br label %_ZN2v811ReturnValueINS_5ValueEE3SetINS_6NumberEEEvNS_5LocalIT_EE.exit

_ZN2v811ReturnValueINS_5ValueEE3SetINS_6NumberEEEvNS_5LocalIT_EE.exit: ; preds = %if.else.i, %if.then.i
  br label %if.end

if.end:                                           ; preds = %_ZN2v811ReturnValueINS_5ValueEE3SetINS_6NumberEEEvNS_5LocalIT_EE.exit, %entry
  ret void
}