; Function Attrs: mustprogress nounwind uwtable
define internal void @_ZN4nodeL20GetConstrainedMemoryERKN2v820FunctionCallbackInfoINS0_5ValueEEE(ptr nocapture noundef nonnull readonly align 8 dereferenceable(20) %args) #3 {
entry:
  %call = tail call i64 @uv_get_constrained_memory() #25
  %cmp.not = icmp eq i64 %call, 0
  br i1 %cmp.not, label %if.end, label %if.then

if.then:                                          ; preds = %entry
  %0 = load ptr, ptr %args, align 8
  %arrayidx.i = getelementptr inbounds i8, ptr %0, i64 24
  %conv = uitofp i64 %call to double
  %arrayidx.i.i = getelementptr inbounds i8, ptr %0, i64 8
  %1 = load ptr, ptr %arrayidx.i.i, align 8
  %call2.i = tail call ptr @_ZN2v86Number3NewEPNS_7IsolateEd(ptr noundef %1, double noundef %conv) #25
  %cmp.i.i = icmp eq ptr %call2.i, null
  br i1 %cmp.i.i, label %if.then.i, label %if.end.sink.split

if.then.i:                                        ; preds = %if.then
  %2 = load ptr, ptr %arrayidx.i.i, align 8
  %3 = ptrtoint ptr %2 to i64
  %add1.i.i = add i64 %3, 616
  %4 = inttoptr i64 %add1.i.i to ptr
  br label %if.end.sink.split

if.end.sink.split:                                ; preds = %if.then, %if.then.i
  %.sink6 = phi ptr [ %4, %if.then.i ], [ %call2.i, %if.then ]
  %5 = load i64, ptr %.sink6, align 8
  store i64 %5, ptr %arrayidx.i, align 8
  br label %if.end

if.end:                                           ; preds = %if.end.sink.split, %entry
  ret void
}